; Function Attrs: nofree norecurse nosync nounwind memory(read, inaccessiblemem: none) uwtable
define range(i32 -2147483648, 2147483647) i32 @Raig_ManFindPo(ptr noundef readonly captures(none) %0, i32 noundef %1) local_unnamed_addr #0 {
  %3 = getelementptr i8, ptr %0, i64 112
  %.val = load i32, ptr %3, align 8
  %4 = icmp sgt i32 %.val, 0
  br i1 %4, label %.lr.ph, label %.critedge

.lr.ph:                                           ; preds = %2
  %5 = getelementptr inbounds nuw i8, ptr %0, i64 24
  %6 = load ptr, ptr %5, align 8
  %7 = getelementptr i8, ptr %6, i64 8
  %.val9 = load ptr, ptr %7, align 8
  %wide.trip.count = zext nneg i32 %.val to i64
  br label %8

8:                                                ; preds = %.lr.ph, %14
  %indvars.iv = phi i64 [ 0, %.lr.ph ], [ %indvars.iv.next, %14 ]
  %9 = getelementptr inbounds nuw ptr, ptr %.val9, i64 %indvars.iv
  %10 = load ptr, ptr %9, align 8
  %11 = getelementptr inbounds nuw i8, ptr %10, i64 40
  %12 = load i32, ptr %11, align 8
  %13 = icmp eq i32 %12, %1
  br i1 %13, label %.critedge.loopexit.split.loop.exit14, label %14

14:                                               ; preds = %8
  %indvars.iv.next = add nuw nsw i64 %indvars.iv, 1
  %exitcond.not = icmp eq i64 %indvars.iv.next, %wide.trip.count
  br i1 %exitcond.not, label %.critedge, label %8, !llvm.loop !4

.critedge.loopexit.split.loop.exit14:             ; preds = %8
  %15 = trunc nuw nsw i64 %indvars.iv to i32
  br label %.critedge

.critedge:                                        ; preds = %14, %.critedge.loopexit.split.loop.exit14, %2
  %.08 = phi i32 [ -1, %2 ], [ %15, %.critedge.loopexit.split.loop.exit14 ], [ -1, %14 ]
  ret i32 %.08
}